target datalayout = "e-m:e-p270:32:32-p271:32:32-p272:64:64-i64:64-i128:128-f80:128-n8:16:32:64-S128"
target triple = "x86_64-unknown-linux-gnu"

%"struct.node::AssertionInfo" = type { ptr, ptr, ptr }
%"class.v8::IndirectHandleBase" = type { ptr }
%"class.v8::Local" = type { %"class.v8::LocalBase" }
%"class.v8::LocalBase" = type { %"class.v8::IndirectHandleBase" }
%"class.v8::LocalBase.35" = type { %"class.v8::IndirectHandleBase" }
%"class.v8::Local.34" = type { %"class.v8::LocalBase.35" }
%"class.v8::Maybe" = type { i8, i8 }
%"class.v8::FunctionCallbackInfo" = type <{ ptr, ptr, i32, [4 x i8] }>
%"class.node::MemoryRetainer" = type { ptr }
%"class.node::crypto::ByteSource" = type { ptr, ptr, i64 }
%"struct.node::crypto::SecretKeyGenConfig" = type { %"class.node::MemoryRetainer", i64, %"class.node::crypto::ByteSource" }
%"class.v8::Local.18" = type { %"class.v8::LocalBase.19" }
%"class.v8::LocalBase.19" = type { %"class.v8::IndirectHandleBase" }

@_ZZN4node6crypto18SecretKeyGenTraits16AdditionalConfigENS0_13CryptoJobModeERKN2v820FunctionCallbackInfoINS3_5ValueEEEPjPNS0_18SecretKeyGenConfigEE4args = internal constant %"struct.node::AssertionInfo" { ptr @.str.4, ptr @.str.5, ptr @.str.6 }, align 8

; Function Attrs: mustprogress nounwind uwtable
define linkonce_odr dso_local void @_ZN2v85MaybeIbEC2EOb(ptr noundef nonnull align 1 dereferenceable(2) %this, ptr noundef nonnull align 1 dereferenceable(1) %t) unnamed_addr #4 comdat align 2 {
entry:
  %this.addr = alloca ptr, align 8
  %t.addr = alloca ptr, align 8
  store ptr %this, ptr %this.addr, align 8
  store ptr %t, ptr %t.addr, align 8
  %this1 = load ptr, ptr %this.addr, align 8
  %has_value_ = getelementptr inbounds %"class.v8::Maybe", ptr %this1, i32 0, i32 0
  store i8 1, ptr %has_value_, align 1
  %value_ = getelementptr inbounds %"class.v8::Maybe", ptr %this1, i32 0, i32 1
  %0 = load ptr, ptr %t.addr, align 8
  %1 = load i8, ptr %0, align 1
  %tobool = trunc i8 %1 to i1
  %frombool = zext i1 %tobool to i8
  store i8 %frombool, ptr %value_, align 1
  ret void
}

; Function Attrs: mustprogress nounwind uwtable
define linkonce_odr dso_local i16 @_ZN2v84JustIbTnPNSt9enable_ifIXntsr3stdE21is_lvalue_reference_vIT_EEvE4typeELPv0EEENS_5MaybeIS2_EEOS2_(ptr noundef nonnull align 1 dereferenceable(1) %t) #4 comdat {
entry:
  %retval = alloca %"class.v8::Maybe", align 1
  %t.addr = alloca ptr, align 8
  store ptr %t, ptr %t.addr, align 8
  %0 = load ptr, ptr %t.addr, align 8
  call void @_ZN2v85MaybeIbEC2EOb(ptr noundef nonnull align 1 dereferenceable(2) %retval, ptr noundef nonnull align 1 dereferenceable(1) %0)
  %1 = load i16, ptr %retval, align 1
  ret i16 %1
}

; Function Attrs: mustprogress nounwind uwtable
define dso_local i16 @_ZN4node6crypto18SecretKeyGenTraits16AdditionalConfigENS0_13CryptoJobModeERKN2v820FunctionCallbackInfoINS3_5ValueEEEPjPNS0_18SecretKeyGenConfigE(i32 noundef %mode, ptr noundef nonnull align 8 dereferenceable(20) %args, ptr noundef %offset, ptr noundef %params) #4 align 2 {
entry:
  %slot.addr.i154 = alloca ptr, align 8
  %this.addr.i.i150 = alloca ptr, align 8
  %this.addr.i151 = alloca ptr, align 8
  %this.addr.i147 = alloca ptr, align 8
  %other.addr.i148 = alloca ptr, align 8
  %this.addr.i144 = alloca ptr, align 8
  %other.addr.i145 = alloca ptr, align 8
  %retval.i141 = alloca %"class.v8::Local.18", align 8
  %that.i142 = alloca %"class.v8::Local", align 8
  %ref.tmp.i143 = alloca %"class.v8::LocalBase.19", align 8
  %this.addr.i139 = alloca ptr, align 8
  %slot.addr.i138 = alloca ptr, align 8
  %this.addr.i136 = alloca ptr, align 8
  %this.addr.i.i130 = alloca ptr, align 8
  %location.addr.i.i131 = alloca ptr, align 8
  %this.addr.i132 = alloca ptr, align 8
  %location.addr.i133 = alloca ptr, align 8
  %this.addr.i.i = alloca ptr, align 8
  %location.addr.i.i = alloca ptr, align 8
  %this.addr.i127 = alloca ptr, align 8
  %location.addr.i128 = alloca ptr, align 8
  %this.addr.i124 = alloca ptr, align 8
  %other.addr.i125 = alloca ptr, align 8
  %this.addr.i121 = alloca ptr, align 8
  %other.addr.i122 = alloca ptr, align 8
  %retval.i119 = alloca %"class.v8::LocalBase", align 8
  %slot.addr.i120 = alloca ptr, align 8
  %retval.i117 = alloca %"class.v8::LocalBase", align 8
  %slot.addr.i118 = alloca ptr, align 8
  %this.addr.i114 = alloca ptr, align 8
  %other.addr.i115 = alloca ptr, align 8
  %this.addr.i111 = alloca ptr, align 8
  %other.addr.i112 = alloca ptr, align 8
  %this.addr.i108 = alloca ptr, align 8
  %location.addr.i109 = alloca ptr, align 8
  %this.addr.i105 = alloca ptr, align 8
  %location.addr.i106 = alloca ptr, align 8
  %this.addr.i102 = alloca ptr, align 8
  %location.addr.i103 = alloca ptr, align 8
  %this.addr.i100 = alloca ptr, align 8
  %location.addr.i = alloca ptr, align 8
  %this.addr.i97 = alloca ptr, align 8
  %other.addr.i98 = alloca ptr, align 8
  %this.addr.i95 = alloca ptr, align 8
  %other.addr.i = alloca ptr, align 8
  %retval.i93 = alloca %"class.v8::LocalBase.35", align 8
  %slot.addr.i94 = alloca ptr, align 8
  %retval.i91 = alloca %"class.v8::LocalBase.35", align 8
  %slot.addr.i92 = alloca ptr, align 8
  %retval.i87 = alloca %"class.v8::Local.34", align 8
  %slot.addr.i88 = alloca ptr, align 8
  %ref.tmp.i89 = alloca %"class.v8::LocalBase.35", align 8
  %retval.i83 = alloca %"class.v8::Local.34", align 8
  %slot.addr.i84 = alloca ptr, align 8
  %ref.tmp.i85 = alloca %"class.v8::LocalBase.35", align 8
  %isolate.addr.i76 = alloca ptr, align 8
  %index.addr.i77 = alloca i32, align 4
  %addr.i78 = alloca i64, align 8
  %isolate.addr.i75 = alloca ptr, align 8
  %index.addr.i = alloca i32, align 4
  %addr.i = alloca i64, align 8
  %isolate.addr.i74 = alloca ptr, align 8
  %isolate.addr.i73 = alloca ptr, align 8
  %retval.i69 = alloca %"class.v8::Local", align 8
  %slot.addr.i70 = alloca ptr, align 8
  %ref.tmp.i71 = alloca %"class.v8::LocalBase", align 8
  %retval.i68 = alloca %"class.v8::Local", align 8
  %slot.addr.i = alloca ptr, align 8
  %ref.tmp.i = alloca %"class.v8::LocalBase", align 8
  %that.i65 = alloca %"class.v8::Local.34", align 8
  %this.addr.i66 = alloca ptr, align 8
  %that.i = alloca %"class.v8::Local.34", align 8
  %this.addr.i64 = alloca ptr, align 8
  %this.addr.i61 = alloca ptr, align 8
  %this.addr.i59 = alloca ptr, align 8
  %retval.i54 = alloca %"class.v8::Local.34", align 8
  %isolate.addr.i55 = alloca ptr, align 8
  %slot.i56 = alloca ptr, align 8
  %retval.i52 = alloca %"class.v8::Local.34", align 8
  %isolate.addr.i = alloca ptr, align 8
  %slot.i = alloca ptr, align 8
  %this.addr.i49 = alloca ptr, align 8
  %retval.i44 = alloca %"class.v8::Local.18", align 8
  %this.addr.i45 = alloca ptr, align 8
  %agg.tmp.i46 = alloca %"class.v8::Local", align 8
  %this.addr.i41 = alloca ptr, align 8
  %retval.i23 = alloca %"class.v8::Local", align 8
  %this.addr.i24 = alloca ptr, align 8
  %i.addr.i25 = alloca i32, align 4
  %agg.tmp.i26 = alloca %"class.v8::Local.34", align 8
  %retval.i = alloca %"class.v8::Local", align 8
  %this.addr.i = alloca ptr, align 8
  %i.addr.i = alloca i32, align 4
  %agg.tmp.i = alloca %"class.v8::Local.34", align 8
  %retval = alloca %"class.v8::Maybe", align 1
  %mode.addr = alloca i32, align 4
  %args.addr = alloca ptr, align 8
  %offset.addr = alloca ptr, align 8
  %params.addr = alloca ptr, align 8
  %ref.tmp = alloca %"class.v8::Local", align 8
  %bits = alloca i32, align 4
  %ref.tmp9 = alloca %"class.v8::Local.18", align 8
  %ref.tmp10 = alloca %"class.v8::Local", align 8
  %ref.tmp21 = alloca i8, align 1
  store i32 %mode, ptr %mode.addr, align 4
  store ptr %args, ptr %args.addr, align 8
  store ptr %offset, ptr %offset.addr, align 8
  store ptr %params, ptr %params.addr, align 8
  br label %do.body

do.body:                                          ; preds = %entry
  %0 = load ptr, ptr %args.addr, align 8
  %1 = load ptr, ptr %offset.addr, align 8
  %2 = load i32, ptr %1, align 4
  store ptr %0, ptr %this.addr.i24, align 8
  store i32 %2, ptr %i.addr.i25, align 4
  %this1.i27 = load ptr, ptr %this.addr.i24, align 8
  %3 = load i32, ptr %i.addr.i25, align 4
  %cmp.i28 = icmp slt i32 %3, 0
  br i1 %cmp.i28, label %if.then.i37, label %lor.lhs.false.i29

lor.lhs.false.i29:                                ; preds = %do.body
  %length_.i30 = getelementptr inbounds %"class.v8::FunctionCallbackInfo", ptr %this1.i27, i32 0, i32 2
  %4 = load i32, ptr %length_.i30, align 8
  %5 = load i32, ptr %i.addr.i25, align 4
  %cmp2.i31 = icmp sle i32 %4, %5
  br i1 %cmp2.i31, label %if.then.i37, label %if.end.i32

if.then.i37:                                      ; preds = %lor.lhs.false.i29, %do.body
  store ptr %this1.i27, ptr %this.addr.i59, align 8
  %this1.i60 = load ptr, ptr %this.addr.i59, align 8
  %6 = load ptr, ptr %this1.i60, align 8
  %arrayidx.i = getelementptr inbounds i64, ptr %6, i64 1
  %7 = load ptr, ptr %arrayidx.i, align 8
  store ptr %7, ptr %isolate.addr.i, align 8
  %8 = load ptr, ptr %isolate.addr.i, align 8
  store ptr %8, ptr %isolate.addr.i74, align 8
  %9 = load ptr, ptr %isolate.addr.i, align 8
  store ptr %9, ptr %isolate.addr.i76, align 8
  store i32 4, ptr %index.addr.i77, align 4
  %10 = load ptr, ptr %isolate.addr.i76, align 8
  %11 = ptrtoint ptr %10 to i64
  %add.i79 = add i64 %11, 576
  %12 = load i32, ptr %index.addr.i77, align 4
  %mul.i80 = mul nsw i32 %12, 8
  %conv.i81 = sext i32 %mul.i80 to i64
  %add1.i82 = add i64 %add.i79, %conv.i81
  store i64 %add1.i82, ptr %addr.i78, align 8
  %13 = load i64, ptr %addr.i78, align 8
  %14 = inttoptr i64 %13 to ptr
  store ptr %14, ptr %slot.i, align 8
  %15 = load ptr, ptr %slot.i, align 8
  store ptr %15, ptr %slot.addr.i88, align 8
  %16 = load ptr, ptr %slot.addr.i88, align 8
  store ptr %16, ptr %slot.addr.i92, align 8
  %17 = load ptr, ptr %slot.addr.i92, align 8
  store ptr %retval.i91, ptr %this.addr.i102, align 8
  store ptr %17, ptr %location.addr.i103, align 8
  %this1.i104 = load ptr, ptr %this.addr.i102, align 8
  %18 = load ptr, ptr %location.addr.i103, align 8
  store ptr %this1.i104, ptr %this.addr.i105, align 8
  store ptr %18, ptr %location.addr.i106, align 8
  %this1.i107 = load ptr, ptr %this.addr.i105, align 8
  %19 = load ptr, ptr %location.addr.i106, align 8
  store ptr %19, ptr %this1.i107, align 8
  %20 = load ptr, ptr %retval.i91, align 8
  store ptr %20, ptr %ref.tmp.i89, align 8
  store ptr %retval.i87, ptr %this.addr.i95, align 8
  store ptr %ref.tmp.i89, ptr %other.addr.i, align 8
  %this1.i96 = load ptr, ptr %this.addr.i95, align 8
  %21 = load ptr, ptr %other.addr.i, align 8
  call void @llvm.memcpy.p0.p0.i64(ptr align 8 %this1.i96, ptr align 8 %21, i64 8, i1 false)
  %22 = load ptr, ptr %retval.i87, align 8
  store ptr %22, ptr %retval.i52, align 8
  %23 = load ptr, ptr %retval.i52, align 8
  store ptr %23, ptr %agg.tmp.i26, align 8
  %24 = load ptr, ptr %agg.tmp.i26, align 8
  store ptr %24, ptr %that.i, align 8
  store ptr %retval.i23, ptr %this.addr.i64, align 8
  %this3.i = load ptr, ptr %this.addr.i64, align 8
  store ptr %this3.i, ptr %this.addr.i114, align 8
  store ptr %that.i, ptr %other.addr.i115, align 8
  %this1.i116 = load ptr, ptr %this.addr.i114, align 8
  %25 = load ptr, ptr %other.addr.i115, align 8
  call void @llvm.memcpy.p0.p0.i64(ptr align 8 %this1.i116, ptr align 8 %25, i64 8, i1 false)
  br label %_ZNK2v820FunctionCallbackInfoINS_5ValueEEixEi.exit40

if.end.i32:                                       ; preds = %lor.lhs.false.i29
  %values_.i33 = getelementptr inbounds %"class.v8::FunctionCallbackInfo", ptr %this1.i27, i32 0, i32 1
  %26 = load ptr, ptr %values_.i33, align 8
  %27 = load i32, ptr %i.addr.i25, align 4
  %idx.ext.i34 = sext i32 %27 to i64
  %add.ptr.i35 = getelementptr inbounds i64, ptr %26, i64 %idx.ext.i34
  store ptr %add.ptr.i35, ptr %slot.addr.i, align 8
  %28 = load ptr, ptr %slot.addr.i, align 8
  store ptr %28, ptr %slot.addr.i120, align 8
  %29 = load ptr, ptr %slot.addr.i120, align 8
  store ptr %retval.i119, ptr %this.addr.i127, align 8
  store ptr %29, ptr %location.addr.i128, align 8
  %this1.i129 = load ptr, ptr %this.addr.i127, align 8
  %30 = load ptr, ptr %location.addr.i128, align 8
  store ptr %this1.i129, ptr %this.addr.i.i, align 8
  store ptr %30, ptr %location.addr.i.i, align 8
  %this1.i.i = load ptr, ptr %this.addr.i.i, align 8
  %31 = load ptr, ptr %location.addr.i.i, align 8
  store ptr %31, ptr %this1.i.i, align 8
  %32 = load ptr, ptr %retval.i119, align 8
  store ptr %32, ptr %ref.tmp.i, align 8
  store ptr %retval.i68, ptr %this.addr.i124, align 8
  store ptr %ref.tmp.i, ptr %other.addr.i125, align 8
  %this1.i126 = load ptr, ptr %this.addr.i124, align 8
  %33 = load ptr, ptr %other.addr.i125, align 8
  call void @llvm.memcpy.p0.p0.i64(ptr align 8 %this1.i126, ptr align 8 %33, i64 8, i1 false)
  %34 = load ptr, ptr %retval.i68, align 8
  store ptr %34, ptr %retval.i23, align 8
  br label %_ZNK2v820FunctionCallbackInfoINS_5ValueEEixEi.exit40

_ZNK2v820FunctionCallbackInfoINS_5ValueEEixEi.exit40: ; preds = %if.end.i32, %if.then.i37
  %35 = load ptr, ptr %retval.i23, align 8
  %coerce.dive = getelementptr inbounds %"class.v8::Local", ptr %ref.tmp, i32 0, i32 0
  %coerce.dive1 = getelementptr inbounds %"class.v8::LocalBase", ptr %coerce.dive, i32 0, i32 0
  %coerce.dive2 = getelementptr inbounds %"class.v8::IndirectHandleBase", ptr %coerce.dive1, i32 0, i32 0
  store ptr %35, ptr %coerce.dive2, align 8
  store ptr %ref.tmp, ptr %this.addr.i41, align 8
  %this1.i42 = load ptr, ptr %this.addr.i41, align 8
  store ptr %this1.i42, ptr %this.addr.i136, align 8
  %this1.i137 = load ptr, ptr %this.addr.i136, align 8
  store ptr %this1.i137, ptr %this.addr.i139, align 8
  %this1.i140 = load ptr, ptr %this.addr.i139, align 8
  %36 = load ptr, ptr %this1.i140, align 8
  store ptr %36, ptr %slot.addr.i138, align 8
  %37 = load ptr, ptr %slot.addr.i138, align 8
  %call4 = call noundef zeroext i1 @_ZNK2v85Value8IsUint32Ev(ptr noundef nonnull align 1 dereferenceable(1) %37)
  %lnot = xor i1 %call4, true
  %lnot5 = xor i1 %lnot, true
  %lnot6 = xor i1 %lnot5, true
  br i1 %lnot6, label %if.then, label %if.end

if.then:                                          ; preds = %_ZNK2v820FunctionCallbackInfoINS_5ValueEEixEi.exit40
  br label %do.body7

do.body7:                                         ; preds = %if.then
  call void @_ZN4node6AssertERKNS_13AssertionInfoE(ptr noundef nonnull align 8 dereferenceable(24) @_ZZN4node6crypto18SecretKeyGenTraits16AdditionalConfigENS0_13CryptoJobModeERKN2v820FunctionCallbackInfoINS3_5ValueEEEPjPNS0_18SecretKeyGenConfigEE4args)
  call void @abort() #14
  unreachable

do.end:                                           ; No predecessors!
  br label %if.end

if.end:                                           ; preds = %do.end, %_ZNK2v820FunctionCallbackInfoINS_5ValueEEixEi.exit40
  br label %do.end8

do.end8:                                          ; preds = %if.end
  %38 = load ptr, ptr %args.addr, align 8
  %39 = load ptr, ptr %offset.addr, align 8
  %40 = load i32, ptr %39, align 4
  store ptr %38, ptr %this.addr.i, align 8
  store i32 %40, ptr %i.addr.i, align 4
  %this1.i = load ptr, ptr %this.addr.i, align 8
  %41 = load i32, ptr %i.addr.i, align 4
  %cmp.i = icmp slt i32 %41, 0
  br i1 %cmp.i, label %if.then.i, label %lor.lhs.false.i

lor.lhs.false.i:                                  ; preds = %do.end8
  %length_.i = getelementptr inbounds %"class.v8::FunctionCallbackInfo", ptr %this1.i, i32 0, i32 2
  %42 = load i32, ptr %length_.i, align 8
  %43 = load i32, ptr %i.addr.i, align 4
  %cmp2.i = icmp sle i32 %42, %43
  br i1 %cmp2.i, label %if.then.i, label %if.end.i

if.then.i:                                        ; preds = %lor.lhs.false.i, %do.end8
  store ptr %this1.i, ptr %this.addr.i61, align 8
  %this1.i62 = load ptr, ptr %this.addr.i61, align 8
  %44 = load ptr, ptr %this1.i62, align 8
  %arrayidx.i63 = getelementptr inbounds i64, ptr %44, i64 1
  %45 = load ptr, ptr %arrayidx.i63, align 8
  store ptr %45, ptr %isolate.addr.i55, align 8
  %46 = load ptr, ptr %isolate.addr.i55, align 8
  store ptr %46, ptr %isolate.addr.i73, align 8
  %47 = load ptr, ptr %isolate.addr.i55, align 8
  store ptr %47, ptr %isolate.addr.i75, align 8
  store i32 4, ptr %index.addr.i, align 4
  %48 = load ptr, ptr %isolate.addr.i75, align 8
  %49 = ptrtoint ptr %48 to i64
  %add.i = add i64 %49, 576
  %50 = load i32, ptr %index.addr.i, align 4
  %mul.i = mul nsw i32 %50, 8
  %conv.i = sext i32 %mul.i to i64
  %add1.i = add i64 %add.i, %conv.i
  store i64 %add1.i, ptr %addr.i, align 8
  %51 = load i64, ptr %addr.i, align 8
  %52 = inttoptr i64 %51 to ptr
  store ptr %52, ptr %slot.i56, align 8
  %53 = load ptr, ptr %slot.i56, align 8
  store ptr %53, ptr %slot.addr.i84, align 8
  %54 = load ptr, ptr %slot.addr.i84, align 8
  store ptr %54, ptr %slot.addr.i94, align 8
  %55 = load ptr, ptr %slot.addr.i94, align 8
  store ptr %retval.i93, ptr %this.addr.i100, align 8
  store ptr %55, ptr %location.addr.i, align 8
  %this1.i101 = load ptr, ptr %this.addr.i100, align 8
  %56 = load ptr, ptr %location.addr.i, align 8
  store ptr %this1.i101, ptr %this.addr.i108, align 8
  store ptr %56, ptr %location.addr.i109, align 8
  %this1.i110 = load ptr, ptr %this.addr.i108, align 8
  %57 = load ptr, ptr %location.addr.i109, align 8
  store ptr %57, ptr %this1.i110, align 8
  %58 = load ptr, ptr %retval.i93, align 8
  store ptr %58, ptr %ref.tmp.i85, align 8
  store ptr %retval.i83, ptr %this.addr.i97, align 8
  store ptr %ref.tmp.i85, ptr %other.addr.i98, align 8
  %this1.i99 = load ptr, ptr %this.addr.i97, align 8
  %59 = load ptr, ptr %other.addr.i98, align 8
  call void @llvm.memcpy.p0.p0.i64(ptr align 8 %this1.i99, ptr align 8 %59, i64 8, i1 false)
  %60 = load ptr, ptr %retval.i83, align 8
  store ptr %60, ptr %retval.i54, align 8
  %61 = load ptr, ptr %retval.i54, align 8
  store ptr %61, ptr %agg.tmp.i, align 8
  %62 = load ptr, ptr %agg.tmp.i, align 8
  store ptr %62, ptr %that.i65, align 8
  store ptr %retval.i, ptr %this.addr.i66, align 8
  %this3.i67 = load ptr, ptr %this.addr.i66, align 8
  store ptr %this3.i67, ptr %this.addr.i111, align 8
  store ptr %that.i65, ptr %other.addr.i112, align 8
  %this1.i113 = load ptr, ptr %this.addr.i111, align 8
  %63 = load ptr, ptr %other.addr.i112, align 8
  call void @llvm.memcpy.p0.p0.i64(ptr align 8 %this1.i113, ptr align 8 %63, i64 8, i1 false)
  br label %_ZNK2v820FunctionCallbackInfoINS_5ValueEEixEi.exit

if.end.i:                                         ; preds = %lor.lhs.false.i
  %values_.i = getelementptr inbounds %"class.v8::FunctionCallbackInfo", ptr %this1.i, i32 0, i32 1
  %64 = load ptr, ptr %values_.i, align 8
  %65 = load i32, ptr %i.addr.i, align 4
  %idx.ext.i = sext i32 %65 to i64
  %add.ptr.i = getelementptr inbounds i64, ptr %64, i64 %idx.ext.i
  store ptr %add.ptr.i, ptr %slot.addr.i70, align 8
  %66 = load ptr, ptr %slot.addr.i70, align 8
  store ptr %66, ptr %slot.addr.i118, align 8
  %67 = load ptr, ptr %slot.addr.i118, align 8
  store ptr %retval.i117, ptr %this.addr.i132, align 8
  store ptr %67, ptr %location.addr.i133, align 8
  %this1.i134 = load ptr, ptr %this.addr.i132, align 8
  %68 = load ptr, ptr %location.addr.i133, align 8
  store ptr %this1.i134, ptr %this.addr.i.i130, align 8
  store ptr %68, ptr %location.addr.i.i131, align 8
  %this1.i.i135 = load ptr, ptr %this.addr.i.i130, align 8
  %69 = load ptr, ptr %location.addr.i.i131, align 8
  store ptr %69, ptr %this1.i.i135, align 8
  %70 = load ptr, ptr %retval.i117, align 8
  store ptr %70, ptr %ref.tmp.i71, align 8
  store ptr %retval.i69, ptr %this.addr.i121, align 8
  store ptr %ref.tmp.i71, ptr %other.addr.i122, align 8
  %this1.i123 = load ptr, ptr %this.addr.i121, align 8
  %71 = load ptr, ptr %other.addr.i122, align 8
  call void @llvm.memcpy.p0.p0.i64(ptr align 8 %this1.i123, ptr align 8 %71, i64 8, i1 false)
  %72 = load ptr, ptr %retval.i69, align 8
  store ptr %72, ptr %retval.i, align 8
  br label %_ZNK2v820FunctionCallbackInfoINS_5ValueEEixEi.exit

_ZNK2v820FunctionCallbackInfoINS_5ValueEEixEi.exit: ; preds = %if.end.i, %if.then.i
  %73 = load ptr, ptr %retval.i, align 8
  %coerce.dive12 = getelementptr inbounds %"class.v8::Local", ptr %ref.tmp10, i32 0, i32 0
  %coerce.dive13 = getelementptr inbounds %"class.v8::LocalBase", ptr %coerce.dive12, i32 0, i32 0
  %coerce.dive14 = getelementptr inbounds %"class.v8::IndirectHandleBase", ptr %coerce.dive13, i32 0, i32 0
  store ptr %73, ptr %coerce.dive14, align 8
  store ptr %ref.tmp10, ptr %this.addr.i45, align 8
  %this1.i47 = load ptr, ptr %this.addr.i45, align 8
  call void @llvm.memcpy.p0.p0.i64(ptr align 8 %agg.tmp.i46, ptr align 8 %this1.i47, i64 8, i1 false)
  %74 = load ptr, ptr %agg.tmp.i46, align 8
  store ptr %74, ptr %that.i142, align 8
  store ptr %ref.tmp.i143, ptr %this.addr.i144, align 8
  store ptr %that.i142, ptr %other.addr.i145, align 8
  %this1.i146 = load ptr, ptr %this.addr.i144, align 8
  %75 = load ptr, ptr %other.addr.i145, align 8
  call void @llvm.memcpy.p0.p0.i64(ptr align 8 %this1.i146, ptr align 8 %75, i64 8, i1 false)
  store ptr %retval.i141, ptr %this.addr.i147, align 8
  store ptr %ref.tmp.i143, ptr %other.addr.i148, align 8
  %this1.i149 = load ptr, ptr %this.addr.i147, align 8
  %76 = load ptr, ptr %other.addr.i148, align 8
  call void @llvm.memcpy.p0.p0.i64(ptr align 8 %this1.i149, ptr align 8 %76, i64 8, i1 false)
  %77 = load ptr, ptr %retval.i141, align 8
  store ptr %77, ptr %retval.i44, align 8
  %78 = load ptr, ptr %retval.i44, align 8
  %coerce.dive16 = getelementptr inbounds %"class.v8::Local.18", ptr %ref.tmp9, i32 0, i32 0
  %coerce.dive17 = getelementptr inbounds %"class.v8::LocalBase.19", ptr %coerce.dive16, i32 0, i32 0
  %coerce.dive18 = getelementptr inbounds %"class.v8::IndirectHandleBase", ptr %coerce.dive17, i32 0, i32 0
  store ptr %78, ptr %coerce.dive18, align 8
  store ptr %ref.tmp9, ptr %this.addr.i49, align 8
  %this1.i50 = load ptr, ptr %this.addr.i49, align 8
  store ptr %this1.i50, ptr %this.addr.i151, align 8
  %this1.i152 = load ptr, ptr %this.addr.i151, align 8
  store ptr %this1.i152, ptr %this.addr.i.i150, align 8
  %this1.i.i153 = load ptr, ptr %this.addr.i.i150, align 8
  %79 = load ptr, ptr %this1.i.i153, align 8
  store ptr %79, ptr %slot.addr.i154, align 8
  %80 = load ptr, ptr %slot.addr.i154, align 8
  %call20 = call noundef i32 @_ZNK2v86Uint325ValueEv(ptr noundef nonnull align 1 dereferenceable(1) %80)
  store i32 %call20, ptr %bits, align 4
  %81 = load i32, ptr %bits, align 4
  %div = udiv i32 %81, 8
  %conv = zext i32 %div to i64
  %82 = load ptr, ptr %params.addr, align 8
  %length = getelementptr inbounds %"struct.node::crypto::SecretKeyGenConfig", ptr %82, i32 0, i32 1
  store i64 %conv, ptr %length, align 8
  %83 = load ptr, ptr %offset.addr, align 8
  %84 = load i32, ptr %83, align 4
  %add = add i32 %84, 1
  store i32 %add, ptr %83, align 4
  store i8 1, ptr %ref.tmp21, align 1
  %call22 = call i16 @_ZN2v84JustIbTnPNSt9enable_ifIXntsr3stdE21is_lvalue_reference_vIT_EEvE4typeELPv0EEENS_5MaybeIS2_EEOS2_(ptr noundef nonnull align 1 dereferenceable(1) %ref.tmp21)
  store i16 %call22, ptr %retval, align 1
  %85 = load i16, ptr %retval, align 1
  ret i16 %85
}