; Function Attrs: mustprogress nounwind uwtable
define dso_local noundef i16 @_ZN4node6crypto18SecretKeyGenTraits16AdditionalConfigENS0_13CryptoJobModeERKN2v820FunctionCallbackInfoINS3_5ValueEEEPjPNS0_18SecretKeyGenConfigE(i32 noundef %mode, ptr nocapture noundef nonnull readonly align 8 dereferenceable(20) %args, ptr nocapture noundef %offset, ptr nocapture noundef writeonly %params) local_unnamed_addr #3 align 2 {
entry:
  %0 = load i32, ptr %offset, align 4
  %cmp.i28 = icmp sgt i32 %0, -1
  %length_.i30 = getelementptr inbounds i8, ptr %args, i64 16
  %1 = load i32, ptr %length_.i30, align 8
  %cmp2.i31.not = icmp sgt i32 %1, %0
  %or.cond = select i1 %cmp.i28, i1 %cmp2.i31.not, i1 false
  br i1 %or.cond, label %if.end.i32, label %if.then.i37

if.then.i37:                                      ; preds = %entry
  %2 = load ptr, ptr %args, align 8
  %arrayidx.i = getelementptr inbounds i8, ptr %2, i64 8
  %3 = load ptr, ptr %arrayidx.i, align 8
  %4 = ptrtoint ptr %3 to i64
  %add1.i82 = add i64 %4, 608
  %5 = inttoptr i64 %add1.i82 to ptr
  br label %_ZNK2v820FunctionCallbackInfoINS_5ValueEEixEi.exit40

if.end.i32:                                       ; preds = %entry
  %values_.i33 = getelementptr inbounds i8, ptr %args, i64 8
  %6 = load ptr, ptr %values_.i33, align 8
  %idx.ext.i34 = zext nneg i32 %0 to i64
  %add.ptr.i35 = getelementptr inbounds i64, ptr %6, i64 %idx.ext.i34
  br label %_ZNK2v820FunctionCallbackInfoINS_5ValueEEixEi.exit40

_ZNK2v820FunctionCallbackInfoINS_5ValueEEixEi.exit40: ; preds = %if.end.i32, %if.then.i37
  %retval.i23.sroa.0.0 = phi ptr [ %5, %if.then.i37 ], [ %add.ptr.i35, %if.end.i32 ]
  %call4 = tail call noundef zeroext i1 @_ZNK2v85Value8IsUint32Ev(ptr noundef nonnull align 1 dereferenceable(1) %retval.i23.sroa.0.0) #16
  br i1 %call4, label %do.end8, label %do.body7

do.body7:                                         ; preds = %_ZNK2v820FunctionCallbackInfoINS_5ValueEEixEi.exit40
  tail call void @_ZN4node6AssertERKNS_13AssertionInfoE(ptr noundef nonnull align 8 dereferenceable(24) @_ZZN4node6crypto18SecretKeyGenTraits16AdditionalConfigENS0_13CryptoJobModeERKN2v820FunctionCallbackInfoINS3_5ValueEEEPjPNS0_18SecretKeyGenConfigEE4args) #16
  tail call void @abort() #17
  unreachable

do.end8:                                          ; preds = %_ZNK2v820FunctionCallbackInfoINS_5ValueEEixEi.exit40
  %7 = load i32, ptr %offset, align 4
  %cmp.i = icmp sgt i32 %7, -1
  %8 = load i32, ptr %length_.i30, align 8
  %cmp2.i.not = icmp sgt i32 %8, %7
  %or.cond12 = select i1 %cmp.i, i1 %cmp2.i.not, i1 false
  br i1 %or.cond12, label %if.end.i, label %if.then.i

if.then.i:                                        ; preds = %do.end8
  %9 = load ptr, ptr %args, align 8
  %arrayidx.i63 = getelementptr inbounds i8, ptr %9, i64 8
  %10 = load ptr, ptr %arrayidx.i63, align 8
  %11 = ptrtoint ptr %10 to i64
  %add1.i = add i64 %11, 608
  %12 = inttoptr i64 %add1.i to ptr
  br label %_ZNK2v820FunctionCallbackInfoINS_5ValueEEixEi.exit

if.end.i:                                         ; preds = %do.end8
  %values_.i = getelementptr inbounds i8, ptr %args, i64 8
  %13 = load ptr, ptr %values_.i, align 8
  %idx.ext.i = zext nneg i32 %7 to i64
  %add.ptr.i = getelementptr inbounds i64, ptr %13, i64 %idx.ext.i
  br label %_ZNK2v820FunctionCallbackInfoINS_5ValueEEixEi.exit

_ZNK2v820FunctionCallbackInfoINS_5ValueEEixEi.exit: ; preds = %if.end.i, %if.then.i
  %retval.i.sroa.0.0 = phi ptr [ %12, %if.then.i ], [ %add.ptr.i, %if.end.i ]
  %call20 = tail call noundef i32 @_ZNK2v86Uint325ValueEv(ptr noundef nonnull align 1 dereferenceable(1) %retval.i.sroa.0.0) #16
  %div11 = lshr i32 %call20, 3
  %conv = zext nneg i32 %div11 to i64
  %length = getelementptr inbounds i8, ptr %params, i64 8
  store i64 %conv, ptr %length, align 8
  %14 = load i32, ptr %offset, align 4
  %add = add i32 %14, 1
  store i32 %add, ptr %offset, align 4
  ret i16 257
}